; Function Attrs: mustprogress uwtable
define void @_ZN10open_spiel8efg_game7EFGGame15AdvancePositionEv(ptr noundef nonnull align 8 dereferenceable(720) %0) local_unnamed_addr #3 align 2 {
  %2 = getelementptr inbounds nuw i8, ptr %0, i64 344
  %3 = load i32, ptr %2, align 8
  %4 = add nsw i32 %3, 1
  store i32 %4, ptr %2, align 8
  %5 = getelementptr inbounds nuw i8, ptr %0, i64 312
  %6 = sext i32 %4 to i64
  %7 = tail call noundef nonnull align 1 dereferenceable(1) ptr @_ZNSt7__cxx1112basic_stringIcSt11char_traitsIcESaIcEEixEm(ptr noundef nonnull align 8 dereferenceable(32) %5, i64 noundef %6)
  %8 = load i8, ptr %7, align 1
  %9 = icmp eq i8 %8, 10
  br i1 %9, label %10, label %14

10:                                               ; preds = %1
  %11 = getelementptr inbounds nuw i8, ptr %0, i64 348
  %12 = load i32, ptr %11, align 4
  %13 = add nsw i32 %12, 1
  store i32 %13, ptr %11, align 4
  br label %14

14:                                               ; preds = %10, %1
  ret void
}